target datalayout = "e-m:e-p270:32:32-p271:32:32-p272:64:64-i64:64-i128:128-f80:128-n8:16:32:64-S128"
target triple = "x86_64-pc-linux-gnu"

%"class.Ipopt::Matrix" = type <{ %"class.Ipopt::TaggedObject", %"class.Ipopt::SmartPtr", i32, i8, [3 x i8] }>
%"class.Ipopt::TaggedObject" = type { %"class.Ipopt::ReferencedObject.base", %"class.Ipopt::Subject", i32, i32 }
%"class.Ipopt::ReferencedObject.base" = type <{ ptr, i32 }>
%"class.Ipopt::Subject" = type { ptr, %"class.std::vector" }
%"class.std::vector" = type { %"struct.std::_Vector_base" }
%"struct.std::_Vector_base" = type { %"struct.std::_Vector_base<Ipopt::Observer *, std::allocator<Ipopt::Observer *>>::_Vector_impl" }
%"struct.std::_Vector_base<Ipopt::Observer *, std::allocator<Ipopt::Observer *>>::_Vector_impl" = type { %"struct.std::_Vector_base<Ipopt::Observer *, std::allocator<Ipopt::Observer *>>::_Vector_impl_data" }
%"struct.std::_Vector_base<Ipopt::Observer *, std::allocator<Ipopt::Observer *>>::_Vector_impl_data" = type { ptr, ptr, ptr }
%"class.Ipopt::SmartPtr" = type { ptr }
%"class.Ipopt::DenseGenMatrix" = type { %"class.Ipopt::Matrix.base", ptr, ptr, i8, i32, ptr }
%"class.Ipopt::Matrix.base" = type <{ %"class.Ipopt::TaggedObject", %"class.Ipopt::SmartPtr", i32, i8 }>
%"class.Ipopt::DenseVector" = type { %"class.Ipopt::Vector.base", ptr, ptr, ptr, i8, i8, double }
%"class.Ipopt::Vector.base" = type <{ %"class.Ipopt::TaggedObject", %"class.Ipopt::SmartPtr.10", %"class.Ipopt::CachedResults", i32, [4 x i8], double, i32, [4 x i8], double, i32, [4 x i8], double, i32, [4 x i8], double, i32, [4 x i8], double, i32, [4 x i8], double, i32, [4 x i8], double, i32, i8 }>
%"class.Ipopt::SmartPtr.10" = type { ptr }
%"class.Ipopt::CachedResults" = type { ptr, i32, ptr }
%"class.Ipopt::MatrixSpace" = type { %"class.Ipopt::ReferencedObject.base", i32, i32, [4 x i8] }
%"class.Ipopt::VectorSpace" = type { %"class.Ipopt::ReferencedObject.base", i32 }

; Function Attrs: mustprogress nounwind uwtable
define linkonce_odr noundef i32 @_ZNK5Ipopt11VectorSpace3DimEv(ptr noundef nonnull align 8 dereferenceable(16) %0) #0 comdat align 2 {
  %2 = alloca ptr, align 8
  store ptr %0, ptr %2, align 8, !tbaa !346
  %3 = load ptr, ptr %2, align 8
  %4 = getelementptr inbounds nuw %"class.Ipopt::VectorSpace", ptr %3, i32 0, i32 1
  %5 = load i32, ptr %4, align 4, !tbaa !347
  ret i32 %5
}

; Function Attrs: inlinehint mustprogress uwtable
define linkonce_odr noundef ptr @_ZNK5Ipopt16DenseVectorSpace23AllocateInternalStorageEv(ptr noundef nonnull align 8 dereferenceable(160) %0) #3 comdat align 2 {
  %2 = alloca ptr, align 8
  %3 = alloca ptr, align 8
  store ptr %0, ptr %3, align 8, !tbaa !345
  %4 = load ptr, ptr %3, align 8
  %5 = call noundef i32 @_ZNK5Ipopt11VectorSpace3DimEv(ptr noundef nonnull align 8 dereferenceable(16) %4)
  %6 = icmp sgt i32 %5, 0
  br i1 %6, label %7, label %15

7:                                                ; preds = %1
  %8 = call noundef i32 @_ZNK5Ipopt11VectorSpace3DimEv(ptr noundef nonnull align 8 dereferenceable(16) %4)
  %9 = sext i32 %8 to i64
  %10 = call { i64, i1 } @llvm.umul.with.overflow.i64(i64 %9, i64 8)
  %11 = extractvalue { i64, i1 } %10, 1
  %12 = extractvalue { i64, i1 } %10, 0
  %13 = select i1 %11, i64 -1, i64 %12
  %14 = call noalias noundef nonnull ptr @_Znam(i64 noundef %13) #17
  store ptr %14, ptr %2, align 8
  br label %16

15:                                               ; preds = %1
  store ptr null, ptr %2, align 8
  br label %16

16:                                               ; preds = %15, %7
  %17 = load ptr, ptr %2, align 8
  ret ptr %17
}

; Function Attrs: inlinehint mustprogress uwtable
define linkonce_odr noundef ptr @_ZN5Ipopt11DenseVector16values_allocatedEv(ptr noundef nonnull align 8 dereferenceable(248) %0) #3 comdat align 2 {
  %2 = alloca ptr, align 8
  store ptr %0, ptr %2, align 8, !tbaa !39
  %3 = load ptr, ptr %2, align 8
  %4 = getelementptr inbounds nuw %"class.Ipopt::DenseVector", ptr %3, i32 0, i32 2
  %5 = load ptr, ptr %4, align 8, !tbaa !47
  %6 = icmp eq ptr %5, null
  br i1 %6, label %7, label %12

7:                                                ; preds = %1
  %8 = getelementptr inbounds nuw %"class.Ipopt::DenseVector", ptr %3, i32 0, i32 1
  %9 = load ptr, ptr %8, align 8, !tbaa !344
  %10 = call noundef ptr @_ZNK5Ipopt16DenseVectorSpace23AllocateInternalStorageEv(ptr noundef nonnull align 8 dereferenceable(160) %9)
  %11 = getelementptr inbounds nuw %"class.Ipopt::DenseVector", ptr %3, i32 0, i32 2
  store ptr %10, ptr %11, align 8, !tbaa !47
  br label %12

12:                                               ; preds = %7, %1
  %13 = getelementptr inbounds nuw %"class.Ipopt::DenseVector", ptr %3, i32 0, i32 2
  %14 = load ptr, ptr %13, align 8, !tbaa !47
  ret ptr %14
}

; Function Attrs: mustprogress nounwind uwtable
define linkonce_odr noundef i32 @_ZNK5Ipopt11MatrixSpace5NColsEv(ptr noundef nonnull align 8 dereferenceable(20) %0) #0 comdat align 2 {
  %2 = alloca ptr, align 8
  store ptr %0, ptr %2, align 8, !tbaa !37
  %3 = load ptr, ptr %2, align 8
  %4 = getelementptr inbounds nuw %"class.Ipopt::MatrixSpace", ptr %3, i32 0, i32 2
  %5 = load i32, ptr %4, align 8, !tbaa !104
  ret i32 %5
}

; Function Attrs: mustprogress nounwind uwtable
define linkonce_odr noundef i32 @_ZNK5Ipopt11MatrixSpace5NRowsEv(ptr noundef nonnull align 8 dereferenceable(20) %0) #0 comdat align 2 {
  %2 = alloca ptr, align 8
  store ptr %0, ptr %2, align 8, !tbaa !37
  %3 = load ptr, ptr %2, align 8
  %4 = getelementptr inbounds nuw %"class.Ipopt::MatrixSpace", ptr %3, i32 0, i32 1
  %5 = load i32, ptr %4, align 4, !tbaa !102
  ret i32 %5
}

; Function Attrs: mustprogress nounwind uwtable
define linkonce_odr noundef ptr @_ZNK5Ipopt8SmartPtrIKNS_11MatrixSpaceEEptEv(ptr noundef nonnull align 8 dereferenceable(8) %0) #0 comdat align 2 {
  %2 = alloca ptr, align 8
  store ptr %0, ptr %2, align 8, !tbaa !107
  %3 = load ptr, ptr %2, align 8
  %4 = getelementptr inbounds nuw %"class.Ipopt::SmartPtr", ptr %3, i32 0, i32 0
  %5 = load ptr, ptr %4, align 8, !tbaa !109
  ret ptr %5
}

; Function Attrs: inlinehint mustprogress uwtable
define linkonce_odr noundef ptr @_ZN5Ipopt11DenseVector6ValuesEv(ptr noundef nonnull align 8 dereferenceable(248) %0) #3 comdat align 2 {
  %2 = alloca ptr, align 8
  store ptr %0, ptr %2, align 8, !tbaa !39
  %3 = load ptr, ptr %2, align 8
  %4 = getelementptr inbounds nuw %"class.Ipopt::DenseVector", ptr %3, i32 0, i32 4
  %5 = load i8, ptr %4, align 8, !tbaa !87, !range !57, !noundef !58
  %6 = trunc i8 %5 to i1
  br i1 %6, label %7, label %12

7:                                                ; preds = %1
  %8 = getelementptr inbounds nuw %"class.Ipopt::DenseVector", ptr %3, i32 0, i32 5
  %9 = load i8, ptr %8, align 1, !tbaa !88, !range !57, !noundef !58
  %10 = trunc i8 %9 to i1
  br i1 %10, label %11, label %12

11:                                               ; preds = %7
  call void @_ZN5Ipopt11DenseVector22set_values_from_scalarEv(ptr noundef nonnull align 8 dereferenceable(248) %3)
  br label %12

12:                                               ; preds = %11, %7, %1
  call void @_ZN5Ipopt12TaggedObject13ObjectChangedEv(ptr noundef nonnull align 8 dereferenceable(56) %3)
  %13 = getelementptr inbounds nuw %"class.Ipopt::DenseVector", ptr %3, i32 0, i32 4
  store i8 1, ptr %13, align 8, !tbaa !87
  %14 = getelementptr inbounds nuw %"class.Ipopt::DenseVector", ptr %3, i32 0, i32 5
  store i8 0, ptr %14, align 1, !tbaa !88
  %15 = call noundef ptr @_ZN5Ipopt11DenseVector16values_allocatedEv(ptr noundef nonnull align 8 dereferenceable(248) %3)
  %16 = getelementptr inbounds nuw %"class.Ipopt::DenseVector", ptr %3, i32 0, i32 2
  %17 = load ptr, ptr %16, align 8, !tbaa !47
  ret ptr %17
}

; Function Attrs: inlinehint mustprogress nounwind uwtable
define linkonce_odr noundef ptr @_ZNK5Ipopt11DenseVector6ValuesEv(ptr noundef nonnull align 8 dereferenceable(248) %0) #8 comdat align 2 {
  %2 = alloca ptr, align 8
  store ptr %0, ptr %2, align 8, !tbaa !39
  %3 = load ptr, ptr %2, align 8
  %4 = getelementptr inbounds nuw %"class.Ipopt::DenseVector", ptr %3, i32 0, i32 2
  %5 = load ptr, ptr %4, align 8, !tbaa !47
  ret ptr %5
}

; Function Attrs: inlinehint mustprogress uwtable
define linkonce_odr noundef i32 @_ZNK5Ipopt6Matrix5NColsEv(ptr noundef nonnull align 8 dereferenceable(69) %0) #3 comdat align 2 {
  %2 = alloca ptr, align 8
  store ptr %0, ptr %2, align 8, !tbaa !3
  %3 = load ptr, ptr %2, align 8
  %4 = getelementptr inbounds nuw %"class.Ipopt::Matrix", ptr %3, i32 0, i32 1
  %5 = call noundef ptr @_ZNK5Ipopt8SmartPtrIKNS_11MatrixSpaceEEptEv(ptr noundef nonnull align 8 dereferenceable(8) %4)
  %6 = call noundef i32 @_ZNK5Ipopt11MatrixSpace5NColsEv(ptr noundef nonnull align 8 dereferenceable(20) %5)
  ret i32 %6
}

; Function Attrs: inlinehint mustprogress uwtable
define linkonce_odr noundef i32 @_ZNK5Ipopt6Matrix5NRowsEv(ptr noundef nonnull align 8 dereferenceable(69) %0) #3 comdat align 2 {
  %2 = alloca ptr, align 8
  store ptr %0, ptr %2, align 8, !tbaa !3
  %3 = load ptr, ptr %2, align 8
  %4 = getelementptr inbounds nuw %"class.Ipopt::Matrix", ptr %3, i32 0, i32 1
  %5 = call noundef ptr @_ZNK5Ipopt8SmartPtrIKNS_11MatrixSpaceEEptEv(ptr noundef nonnull align 8 dereferenceable(8) %4)
  %6 = call noundef i32 @_ZNK5Ipopt11MatrixSpace5NRowsEv(ptr noundef nonnull align 8 dereferenceable(20) %5)
  ret i32 %6
}

; Function Attrs: mustprogress uwtable
define void @_ZNK5Ipopt14DenseGenMatrix19TransMultVectorImplEdRKNS_6VectorEdRS1_(ptr noundef nonnull align 8 dereferenceable(104) %0, double noundef %1, ptr noundef nonnull align 8 dereferenceable(205) %2, double noundef %3, ptr noundef nonnull align 8 dereferenceable(205) %4) unnamed_addr #2 align 2 {
  %6 = alloca ptr, align 8
  %7 = alloca double, align 8
  %8 = alloca ptr, align 8
  %9 = alloca double, align 8
  %10 = alloca ptr, align 8
  %11 = alloca ptr, align 8
  %12 = alloca ptr, align 8
  %13 = alloca i8, align 1
  store ptr %0, ptr %6, align 8, !tbaa !10
  store double %1, ptr %7, align 8, !tbaa !43
  store ptr %2, ptr %8, align 8, !tbaa !70
  store double %3, ptr %9, align 8, !tbaa !43
  store ptr %4, ptr %10, align 8, !tbaa !70
  %14 = load ptr, ptr %6, align 8
  call void @llvm.lifetime.start.p0(i64 8, ptr %11) #16
  %15 = load ptr, ptr %8, align 8, !tbaa !70
  store ptr %15, ptr %11, align 8, !tbaa !39
  call void @llvm.lifetime.start.p0(i64 8, ptr %12) #16
  %16 = load ptr, ptr %10, align 8, !tbaa !70
  store ptr %16, ptr %12, align 8, !tbaa !39
  call void @llvm.lifetime.start.p0(i64 1, ptr %13) #16
  store i8 1, ptr %13, align 1, !tbaa !56
  %17 = load i8, ptr %13, align 1, !tbaa !56, !range !57, !noundef !58
  %18 = trunc i8 %17 to i1
  %19 = call noundef i32 @_ZNK5Ipopt6Matrix5NRowsEv(ptr noundef nonnull align 8 dereferenceable(69) %14)
  %20 = call noundef i32 @_ZNK5Ipopt6Matrix5NColsEv(ptr noundef nonnull align 8 dereferenceable(69) %14)
  %21 = load double, ptr %7, align 8, !tbaa !43
  %22 = getelementptr inbounds nuw %"class.Ipopt::DenseGenMatrix", ptr %14, i32 0, i32 2
  %23 = load ptr, ptr %22, align 8, !tbaa !33
  %24 = call noundef i32 @_ZNK5Ipopt6Matrix5NRowsEv(ptr noundef nonnull align 8 dereferenceable(69) %14)
  %25 = load ptr, ptr %11, align 8, !tbaa !39
  %26 = call noundef ptr @_ZNK5Ipopt11DenseVector6ValuesEv(ptr noundef nonnull align 8 dereferenceable(248) %25)
  %27 = load double, ptr %9, align 8, !tbaa !43
  %28 = load ptr, ptr %12, align 8, !tbaa !39
  %29 = call noundef ptr @_ZN5Ipopt11DenseVector6ValuesEv(ptr noundef nonnull align 8 dereferenceable(248) %28)
  call void @_ZN5Ipopt10IpBlasGemvEbiidPKdiS1_idPdi(i1 noundef zeroext %18, i32 noundef %19, i32 noundef %20, double noundef %21, ptr noundef %23, i32 noundef %24, ptr noundef %26, i32 noundef 1, double noundef %27, ptr noundef %29, i32 noundef 1)
  call void @llvm.lifetime.end.p0(i64 1, ptr %13) #16
  call void @llvm.lifetime.end.p0(i64 8, ptr %12) #16
  call void @llvm.lifetime.end.p0(i64 8, ptr %11) #16
  ret void
}